target datalayout = "e-m:e-p270:32:32-p271:32:32-p272:64:64-i64:64-i128:128-f80:128-n8:16:32:64-S128"
target triple = "x86_64-pc-linux-gnu"

%struct.RBasic = type { i64, i64 }

@rb_eTypeError = external global i64, align 8
@rb_cNumeric = external global i64, align 8
@rb_cTime = external global i64, align 8
@.str.62 = private unnamed_addr constant [55 x i8] c"cannot determine inclusion in beginless/endless ranges\00", align 1

; Function Attrs: inlinehint nounwind sspstrong willreturn memory(none) uwtable
define internal zeroext i1 @RB_IMMEDIATE_P(i64 noundef %0) #4 {
  %2 = alloca i64, align 8
  store i64 %0, ptr %2, align 8, !tbaa !7
  %3 = load i64, ptr %2, align 8, !tbaa !7
  %4 = and i64 %3, 7
  %5 = icmp ne i64 %4, 0
  ret i1 %5
}

; Function Attrs: inlinehint nounwind sspstrong willreturn memory(read) uwtable
define internal i32 @RB_BUILTIN_TYPE(i64 noundef %0) #7 {
  %2 = alloca i64, align 8
  %3 = alloca i64, align 8
  store i64 %0, ptr %2, align 8, !tbaa !7
  call void @llvm.lifetime.start.p0(i64 8, ptr %3) #18
  %4 = load i64, ptr %2, align 8, !tbaa !7
  %5 = inttoptr i64 %4 to ptr
  %6 = getelementptr inbounds nuw %struct.RBasic, ptr %5, i32 0, i32 0
  %7 = load i64, ptr %6, align 8, !tbaa !44
  %8 = and i64 %7, 31
  store i64 %8, ptr %3, align 8, !tbaa !7
  %9 = load i64, ptr %3, align 8, !tbaa !7
  %10 = trunc i64 %9 to i32
  call void @llvm.lifetime.end.p0(i64 8, ptr %3) #18
  ret i32 %10
}

; Function Attrs: inlinehint nounwind sspstrong willreturn memory(none) uwtable
define internal zeroext i1 @RB_SPECIAL_CONST_P(i64 noundef %0) #4 {
  %2 = alloca i64, align 8
  store i64 %0, ptr %2, align 8, !tbaa !7
  %3 = load i64, ptr %2, align 8, !tbaa !7
  %4 = icmp eq i64 %3, 0
  br i1 %4, label %8, label %5

5:                                                ; preds = %1
  %6 = load i64, ptr %2, align 8, !tbaa !7
  %7 = call zeroext i1 @RB_IMMEDIATE_P(i64 noundef %6) #19
  br label %8

8:                                                ; preds = %5, %1
  %9 = phi i1 [ true, %1 ], [ %7, %5 ]
  ret i1 %9
}

; Function Attrs: inlinehint nounwind sspstrong willreturn memory(none) uwtable
define internal zeroext i1 @RB_FLONUM_P(i64 noundef %0) #4 {
  %2 = alloca i64, align 8
  store i64 %0, ptr %2, align 8, !tbaa !7
  %3 = load i64, ptr %2, align 8, !tbaa !7
  %4 = and i64 %3, 3
  %5 = icmp eq i64 %4, 2
  ret i1 %5
}

; Function Attrs: inlinehint nounwind sspstrong willreturn memory(none) uwtable
define internal zeroext i1 @RB_FIXNUM_P(i64 noundef %0) #4 {
  %2 = alloca i64, align 8
  store i64 %0, ptr %2, align 8, !tbaa !7
  %3 = load i64, ptr %2, align 8, !tbaa !7
  %4 = and i64 %3, 1
  %5 = icmp ne i64 %4, 0
  ret i1 %5
}

; Function Attrs: nounwind sspstrong uwtable
define internal i32 @linear_object_p(i64 noundef %0) #0 {
  %2 = alloca i32, align 4
  %3 = alloca i64, align 8
  store i64 %0, ptr %3, align 8, !tbaa !7
  %4 = load i64, ptr %3, align 8, !tbaa !7
  %5 = call zeroext i1 @RB_FIXNUM_P(i64 noundef %4) #19
  br i1 %5, label %9, label %6

6:                                                ; preds = %1
  %7 = load i64, ptr %3, align 8, !tbaa !7
  %8 = call zeroext i1 @RB_FLONUM_P(i64 noundef %7) #19
  br i1 %8, label %9, label %10

9:                                                ; preds = %6, %1
  store i32 1, ptr %2, align 4
  br label %32

10:                                               ; preds = %6
  %11 = load i64, ptr %3, align 8, !tbaa !7
  %12 = call zeroext i1 @RB_SPECIAL_CONST_P(i64 noundef %11) #19
  br i1 %12, label %13, label %14

13:                                               ; preds = %10
  store i32 0, ptr %2, align 4
  br label %32

14:                                               ; preds = %10
  %15 = load i64, ptr %3, align 8, !tbaa !7
  %16 = call i32 @RB_BUILTIN_TYPE(i64 noundef %15) #21
  switch i32 %16, label %18 [
    i32 4, label %17
    i32 10, label %17
  ]

17:                                               ; preds = %14, %14
  store i32 1, ptr %2, align 4
  br label %32

18:                                               ; preds = %14
  br label %19

19:                                               ; preds = %18
  %20 = load i64, ptr %3, align 8, !tbaa !7
  %21 = load i64, ptr @rb_cNumeric, align 8, !tbaa !7
  %22 = call i64 @rb_obj_is_kind_of(i64 noundef %20, i64 noundef %21)
  %23 = icmp ne i64 %22, 0
  br i1 %23, label %24, label %25

24:                                               ; preds = %19
  store i32 1, ptr %2, align 4
  br label %32

25:                                               ; preds = %19
  %26 = load i64, ptr %3, align 8, !tbaa !7
  %27 = load i64, ptr @rb_cTime, align 8, !tbaa !7
  %28 = call i64 @rb_obj_is_kind_of(i64 noundef %26, i64 noundef %27)
  %29 = icmp ne i64 %28, 0
  br i1 %29, label %30, label %31

30:                                               ; preds = %25
  store i32 1, ptr %2, align 4
  br label %32

31:                                               ; preds = %25
  store i32 0, ptr %2, align 4
  br label %32

32:                                               ; preds = %31, %30, %24, %17, %13, %9
  %33 = load i32, ptr %2, align 4
  ret i32 %33
}

; Function Attrs: inlinehint nounwind sspstrong willreturn memory(none) uwtable
define internal zeroext i1 @RB_NIL_P(i64 noundef %0) #4 {
  %2 = alloca i64, align 8
  store i64 %0, ptr %2, align 8, !tbaa !7
  %3 = load i64, ptr %2, align 8, !tbaa !7
  %4 = icmp eq i64 %3, 4
  ret i1 %4
}

; Function Attrs: inlinehint nounwind sspstrong uwtable
define internal i64 @range_include_fallback(i64 noundef %0, i64 noundef %1, i64 noundef %2) #3 {
  %4 = alloca i64, align 8
  %5 = alloca i64, align 8
  %6 = alloca i64, align 8
  %7 = alloca i64, align 8
  store i64 %0, ptr %5, align 8, !tbaa !7
  store i64 %1, ptr %6, align 8, !tbaa !7
  store i64 %2, ptr %7, align 8, !tbaa !7
  %8 = load i64, ptr %5, align 8, !tbaa !7
  %9 = call zeroext i1 @RB_NIL_P(i64 noundef %8) #19
  br i1 %9, label %10, label %19

10:                                               ; preds = %3
  %11 = load i64, ptr %6, align 8, !tbaa !7
  %12 = call zeroext i1 @RB_NIL_P(i64 noundef %11) #19
  br i1 %12, label %13, label %19

13:                                               ; preds = %10
  %14 = load i64, ptr %7, align 8, !tbaa !7
  %15 = call i32 @linear_object_p(i64 noundef %14)
  %16 = icmp ne i32 %15, 0
  br i1 %16, label %17, label %18

17:                                               ; preds = %13
  store i64 20, ptr %4, align 8
  br label %28

18:                                               ; preds = %13
  br label %19

19:                                               ; preds = %18, %10, %3
  %20 = load i64, ptr %5, align 8, !tbaa !7
  %21 = call zeroext i1 @RB_NIL_P(i64 noundef %20) #19
  br i1 %21, label %25, label %22

22:                                               ; preds = %19
  %23 = load i64, ptr %6, align 8, !tbaa !7
  %24 = call zeroext i1 @RB_NIL_P(i64 noundef %23) #19
  br i1 %24, label %25, label %27

25:                                               ; preds = %22, %19
  %26 = load i64, ptr @rb_eTypeError, align 8, !tbaa !7
  call void (i64, ptr, ...) @rb_raise(i64 noundef %26, ptr noundef @.str.62) #20
  unreachable

27:                                               ; preds = %22
  store i64 36, ptr %4, align 8
  br label %28

28:                                               ; preds = %27, %17
  %29 = load i64, ptr %4, align 8
  ret i64 %29
}