; Function Attrs: inlinehint nounwind sspstrong uwtable
define internal fastcc range(i64 20, 37) i64 @range_include_fallback(i64 noundef %0, i64 noundef %1, i64 noundef %2) unnamed_addr #10 {
  %4 = icmp eq i64 %0, 4
  %5 = icmp eq i64 %1, 4
  br i1 %4, label %6, label %.critedge

6:                                                ; preds = %3
  br i1 %5, label %7, label %linear_object_p.exit.thread8

7:                                                ; preds = %6
  %8 = and i64 %2, 1
  %9 = icmp ne i64 %8, 0
  %10 = and i64 %2, 3
  %11 = icmp eq i64 %10, 2
  %or.cond.i = or i1 %9, %11
  br i1 %or.cond.i, label %linear_object_p.exit.thread, label %12

12:                                               ; preds = %7
  %13 = icmp eq i64 %2, 0
  %14 = and i64 %2, 6
  %15 = icmp ne i64 %14, 0
  %16 = or i1 %13, %15
  br i1 %16, label %linear_object_p.exit.thread8, label %17

17:                                               ; preds = %12
  %18 = inttoptr i64 %2 to ptr
  %19 = load i64, ptr %18, align 8, !tbaa !11
  %20 = trunc i64 %19 to i32
  %21 = and i32 %20, 31
  switch i32 %21, label %22 [
    i32 4, label %linear_object_p.exit.thread
    i32 10, label %linear_object_p.exit.thread
  ]

22:                                               ; preds = %17
  %23 = load i64, ptr @rb_cNumeric, align 8, !tbaa !7
  %24 = tail call i64 @rb_obj_is_kind_of(i64 noundef %2, i64 noundef %23) #13
  %.not.i = icmp eq i64 %24, 0
  br i1 %.not.i, label %linear_object_p.exit, label %linear_object_p.exit.thread

linear_object_p.exit:                             ; preds = %22
  %25 = load i64, ptr @rb_cTime, align 8, !tbaa !7
  %26 = tail call i64 @rb_obj_is_kind_of(i64 noundef %2, i64 noundef %25) #13
  %.not7.i.not = icmp eq i64 %26, 0
  br i1 %.not7.i.not, label %linear_object_p.exit.thread8, label %linear_object_p.exit.thread

.critedge:                                        ; preds = %3
  br i1 %5, label %linear_object_p.exit.thread8, label %linear_object_p.exit.thread

linear_object_p.exit.thread8:                     ; preds = %12, %6, %linear_object_p.exit, %.critedge
  %27 = load i64, ptr @rb_eTypeError, align 8, !tbaa !7
  tail call void (i64, ptr, ...) @rb_raise(i64 noundef %27, ptr noundef nonnull @.str.62) #14
  unreachable

linear_object_p.exit.thread:                      ; preds = %22, %17, %17, %7, %.critedge, %linear_object_p.exit
  %.0 = phi i64 [ 20, %linear_object_p.exit ], [ 36, %.critedge ], [ 20, %7 ], [ 20, %17 ], [ 20, %17 ], [ 20, %22 ]
  ret i64 %.0
}